target datalayout = "e-m:e-p270:32:32-p271:32:32-p272:64:64-i64:64-i128:128-f80:128-n8:16:32:64-S128"
target triple = "x86_64-pc-linux-gnu"

%struct.curl_mimepart = type { ptr, ptr, i32, i32, ptr, ptr, ptr, ptr, ptr, ptr, ptr, ptr, ptr, ptr, ptr, i64, %struct.mime_state, ptr, %struct.mime_encoder_state, i64 }
%struct.mime_state = type { i32, ptr, i64 }
%struct.mime_encoder_state = type { i64, i64, i64, [256 x i8] }

; Function Attrs: nounwind uwtable
define internal i64 @encoder_nop_read(ptr noundef %0, i64 noundef %1, i1 noundef zeroext %2, ptr noundef %3) #0 {
  %5 = alloca i64, align 8
  %6 = alloca ptr, align 8
  %7 = alloca i64, align 8
  %8 = alloca i8, align 1
  %9 = alloca ptr, align 8
  %10 = alloca ptr, align 8
  %11 = alloca i64, align 8
  %12 = alloca i32, align 4
  store ptr %0, ptr %6, align 8, !tbaa !49
  store i64 %1, ptr %7, align 8, !tbaa !50
  %13 = zext i1 %2 to i8
  store i8 %13, ptr %8, align 1, !tbaa !70
  store ptr %3, ptr %9, align 8, !tbaa !4
  call void @llvm.lifetime.start.p0(i64 8, ptr %10) #8
  %14 = load ptr, ptr %9, align 8, !tbaa !4
  %15 = getelementptr inbounds nuw %struct.curl_mimepart, ptr %14, i32 0, i32 18
  store ptr %15, ptr %10, align 8, !tbaa !107
  call void @llvm.lifetime.start.p0(i64 8, ptr %11) #8
  %16 = load ptr, ptr %10, align 8, !tbaa !107
  %17 = getelementptr inbounds nuw %struct.mime_encoder_state, ptr %16, i32 0, i32 2
  %18 = load i64, ptr %17, align 8, !tbaa !111
  %19 = load ptr, ptr %10, align 8, !tbaa !107
  %20 = getelementptr inbounds nuw %struct.mime_encoder_state, ptr %19, i32 0, i32 1
  %21 = load i64, ptr %20, align 8, !tbaa !110
  %22 = sub i64 %18, %21
  store i64 %22, ptr %11, align 8, !tbaa !50
  %23 = load i64, ptr %7, align 8, !tbaa !50
  %24 = icmp ne i64 %23, 0
  br i1 %24, label %26, label %25

25:                                               ; preds = %4
  store i64 -2, ptr %5, align 8
  store i32 1, ptr %12, align 4
  br label %52

26:                                               ; preds = %4
  %27 = load i64, ptr %7, align 8, !tbaa !50
  %28 = load i64, ptr %11, align 8, !tbaa !50
  %29 = icmp ugt i64 %27, %28
  br i1 %29, label %30, label %32

30:                                               ; preds = %26
  %31 = load i64, ptr %11, align 8, !tbaa !50
  store i64 %31, ptr %7, align 8, !tbaa !50
  br label %32

32:                                               ; preds = %30, %26
  %33 = load i64, ptr %7, align 8, !tbaa !50
  %34 = icmp ne i64 %33, 0
  br i1 %34, label %35, label %45

35:                                               ; preds = %32
  %36 = load ptr, ptr %6, align 8, !tbaa !49
  %37 = load ptr, ptr %10, align 8, !tbaa !107
  %38 = getelementptr inbounds nuw %struct.mime_encoder_state, ptr %37, i32 0, i32 3
  %39 = getelementptr inbounds [256 x i8], ptr %38, i64 0, i64 0
  %40 = load ptr, ptr %10, align 8, !tbaa !107
  %41 = getelementptr inbounds nuw %struct.mime_encoder_state, ptr %40, i32 0, i32 1
  %42 = load i64, ptr %41, align 8, !tbaa !110
  %43 = getelementptr inbounds nuw i8, ptr %39, i64 %42
  %44 = load i64, ptr %7, align 8, !tbaa !50
  call void @llvm.memcpy.p0.p0.i64(ptr align 1 %36, ptr align 1 %43, i64 %44, i1 false)
  br label %45

45:                                               ; preds = %35, %32
  %46 = load i64, ptr %7, align 8, !tbaa !50
  %47 = load ptr, ptr %10, align 8, !tbaa !107
  %48 = getelementptr inbounds nuw %struct.mime_encoder_state, ptr %47, i32 0, i32 1
  %49 = load i64, ptr %48, align 8, !tbaa !110
  %50 = add i64 %49, %46
  store i64 %50, ptr %48, align 8, !tbaa !110
  %51 = load i64, ptr %7, align 8, !tbaa !50
  store i64 %51, ptr %5, align 8
  store i32 1, ptr %12, align 4
  br label %52

52:                                               ; preds = %45, %25
  call void @llvm.lifetime.end.p0(i64 8, ptr %11) #8
  call void @llvm.lifetime.end.p0(i64 8, ptr %10) #8
  %53 = load i64, ptr %5, align 8
  ret i64 %53
}