; Function Attrs: mustprogress nofree norecurse nosync nounwind willreturn memory(argmem: readwrite) uwtable
define internal i64 @encoder_nop_read(ptr noundef writeonly captures(none) %0, i64 noundef %1, i1 zeroext %2, ptr noundef captures(none) %3) #7 {
  %5 = getelementptr inbounds nuw i8, ptr %3, i64 160
  %6 = load i64, ptr %5, align 8, !tbaa !69
  %.not = icmp eq i64 %1, 0
  br i1 %.not, label %17, label %7

7:                                                ; preds = %4
  %8 = getelementptr inbounds nuw i8, ptr %3, i64 168
  %9 = load i64, ptr %8, align 8, !tbaa !70
  %10 = sub i64 %9, %6
  %spec.select = tail call i64 @llvm.umin.i64(i64 %1, i64 %10)
  %.not18 = icmp eq i64 %9, %6
  br i1 %.not18, label %14, label %11

11:                                               ; preds = %7
  %12 = getelementptr inbounds nuw i8, ptr %3, i64 176
  %13 = getelementptr inbounds nuw i8, ptr %12, i64 %6
  tail call void @llvm.memcpy.p0.p0.i64(ptr align 1 %0, ptr nonnull align 1 %13, i64 %spec.select, i1 false)
  %.pre = load i64, ptr %5, align 8, !tbaa !69
  br label %14

14:                                               ; preds = %11, %7
  %15 = phi i64 [ %.pre, %11 ], [ %6, %7 ]
  %16 = add i64 %15, %spec.select
  store i64 %16, ptr %5, align 8, !tbaa !69
  br label %17

17:                                               ; preds = %4, %14
  %.0 = phi i64 [ %spec.select, %14 ], [ -2, %4 ]
  ret i64 %.0
}